; Function Attrs: nounwind uwtable
define i32 @EVP_RAND_verify_zeroization(ptr noundef readonly captures(none) %0) local_unnamed_addr #0 {
  %2 = load ptr, ptr %0, align 8, !tbaa !3
  %3 = getelementptr inbounds nuw i8, ptr %2, i64 112
  %4 = load ptr, ptr %3, align 8, !tbaa !37
  %.not.i = icmp eq ptr %4, null
  br i1 %.not.i, label %evp_rand_lock.exit.thread, label %evp_rand_lock.exit

evp_rand_lock.exit:                               ; preds = %1
  %5 = getelementptr inbounds nuw i8, ptr %0, i64 8
  %6 = load ptr, ptr %5, align 8, !tbaa !17
  %7 = tail call i32 %4(ptr noundef %6) #8
  %.not = icmp eq i32 %7, 0
  br i1 %.not, label %evp_rand_unlock.exit, label %evp_rand_lock.exit.evp_rand_lock.exit.thread_crit_edge

evp_rand_lock.exit.evp_rand_lock.exit.thread_crit_edge: ; preds = %evp_rand_lock.exit
  %.pre = load ptr, ptr %0, align 8, !tbaa !3
  br label %evp_rand_lock.exit.thread

evp_rand_lock.exit.thread:                        ; preds = %evp_rand_lock.exit.evp_rand_lock.exit.thread_crit_edge, %1
  %8 = phi ptr [ %.pre, %evp_rand_lock.exit.evp_rand_lock.exit.thread_crit_edge ], [ %2, %1 ]
  %9 = getelementptr inbounds nuw i8, ptr %8, i64 176
  %10 = load ptr, ptr %9, align 8, !tbaa !45
  %.not.i4 = icmp eq ptr %10, null
  br i1 %.not.i4, label %evp_rand_verify_zeroization_locked.exit, label %11

11:                                               ; preds = %evp_rand_lock.exit.thread
  %12 = getelementptr inbounds nuw i8, ptr %0, i64 8
  %13 = load ptr, ptr %12, align 8, !tbaa !17
  %14 = tail call i32 %10(ptr noundef %13) #8
  %.pre9 = load ptr, ptr %0, align 8, !tbaa !3
  br label %evp_rand_verify_zeroization_locked.exit

evp_rand_verify_zeroization_locked.exit:          ; preds = %evp_rand_lock.exit.thread, %11
  %15 = phi ptr [ %.pre9, %11 ], [ %8, %evp_rand_lock.exit.thread ]
  %.0.i5 = phi i32 [ %14, %11 ], [ 0, %evp_rand_lock.exit.thread ]
  %16 = getelementptr inbounds nuw i8, ptr %15, i64 120
  %17 = load ptr, ptr %16, align 8, !tbaa !38
  %.not.i6 = icmp eq ptr %17, null
  br i1 %.not.i6, label %evp_rand_unlock.exit, label %18

18:                                               ; preds = %evp_rand_verify_zeroization_locked.exit
  %19 = getelementptr inbounds nuw i8, ptr %0, i64 8
  %20 = load ptr, ptr %19, align 8, !tbaa !17
  tail call void %17(ptr noundef %20) #8
  br label %evp_rand_unlock.exit

evp_rand_unlock.exit:                             ; preds = %18, %evp_rand_verify_zeroization_locked.exit, %evp_rand_lock.exit
  %.0 = phi i32 [ 0, %evp_rand_lock.exit ], [ %.0.i5, %evp_rand_verify_zeroization_locked.exit ], [ %.0.i5, %18 ]
  ret i32 %.0
}